(dp1
Vfawn
p2
I3
sVhuffi
p3
I1
sVpartial
p4
I4
sVvile
p5
I2
sVpep
p6
I4
sVhatr
p7
I1
sVfoul
p8
I2
sVweltschmerz
p9
I5
sVcatch
p10
I4
sVdisconsol
p11
I5
sVhate
p12
I1
sVbewild
p13
I6
sVdevoted
p14
I4
sVdispirit
p15
I5
sVpresenti
p16
I3
sVmisopedia
p17
I1
sVfriendli
p18
I4
sVvex
p19
I1
sVspirit
p20
I4
sS'to'
p21
I4
sVforebod
p22
I3
sVlorn
p23
I5
sVwarpath
p24
I1
sVdaze
p25
I6
sVterror
p26
I3
sVpersecut
p27
I5
sVhideous
p28
I3
sVkindheart
p29
I4
sVwoebegon
p30
I5
sVappal
p31
I3
sVhorror
p32
I3
sVmourn
p33
I5
sVaffect
p34
I4
sVtimor
p35
I3
sVnausea
p36
I2
sVpeski
p37
I1
sVbeam
p38
I4
sVharri
p39
I1
sVtear
p40
I5
sVteas
p41
I4
sVbrother
p42
I4
sVcompunct
p43
I5
sVanxious
p44
I3
sVquick
p45
I1
sVpanic-stricken
p46
I3
sVtriumph
p47
I4
sVpleas
p48
I4
sVmalici
p49
I1
sVsickish
p50
I2
sVconstern
p51
I3
sVstupefi
p52
I6
sVsomber
p53
I5
sVjump
p54
I4
sVtitil
p55
I4
sVsooth
p56
I4
sVhelpless
p57
I5
sVair
p58
I4
sVblith
p59
I4
sVdumbfound
p60
I6
sVexcit
p61
I4
sVruthless
p62
I3
sVbenevol
p63
I4
sVjocular
p64
I4
sVcrush
p65
I4
sVshiveri
p66
I3
sVtickl
p67
I4
sVhero
p68
I4
sVstupefact
p69
I6
sVsatisfi
p70
I4
sVmelancholi
p71
I5
sVdetest
p72
I2
sVgloat
p73
I4
sValong
p74
I4
sVbode
p75
I3
sVmiser
p76
I5
sVmerriment
p77
I4
sVdespis
p78
I1
sVhorror-stricken
p79
I3
sVamatori
p80
I4
sVmisocainea
p81
I1
sVharass
p82
I5
sVrepel
p83
I2
sVself-complac
p84
I4
sVgleeful
p85
I4
sVenmiti
p86
I1
sVguilti
p87
I5
sVsorri
p88
I5
sVtremend
p89
I6
sVenvious
p90
I1
sVlove
p91
I4
sVkindhearted
p92
I4
sVheart
p93
I4
sVemot
p94
I4
sVprefer
p95
I4
sVrepugn
p96
I2
sVdudgeon
p97
I1
sVaggriev
p98
I5
sVangrili
p99
I1
sVcloud
p100
I4
sVaggress
p101
I1
sVfed
p102
I2
sVdeject
p103
I5
sVgrievanc
p104
I1
sVexhort
p105
I4
sVsympathet
p106
I4
sVlive
p107
I4
sVgreedi
p108
I1
sVkeen
p109
I4
sVnauseat
p110
I2
sVangri
p111
I1
sVrattl
p112
I6
sVcalf
p113
I4
sVpiqu
p114
I1
sVgriev
p115
I5
sVdismay
p116
I5
sVdispirited
p117
I5
sVmisogami
p118
I1
sVstupifi
p119
I6
sVmalefic
p120
I1
sVodious
p121
I2
sVgrief
p122
I5
sVsore
p123
I1
sVwarm
p124
I4
sVdismal
p125
I5
sVenthusiasm
p126
I4
sVrancor
p127
I1
sVglad
p128
I4
sVbelong
p129
I4
sVannoy
p130
I1
sVgladsom
p131
I4
sVgravel
p132
I6
sVbereav
p133
I5
sVpout
p134
I1
sVwoefulli
p135
I5
sVtranc
p136
I4
sVvindict
p137
I1
sVgrovel
p138
I3
sVperki
p139
I4
sVnine
p140
I4
sVtyrann
p141
I5
sVmerrili
p142
I4
sVlighthearted
p143
I4
sVsoft
p144
I4
sVself-distrust
p145
I3
sVjoyous
p146
I4
sVlovesom
p147
I4
sS'in'
p148
I6
sVnear
p149
I4
sVheartless
p150
I3
sVexuber
p151
I4
sVhigh
p152
I4
sVmalign
p153
I1
sVgloomi
p154
I5
sVdispleasur
p155
I1
sVsicken
p156
I2
sVsatisfact
p157
I4
sVrapport
p158
I4
sVnark
p159
I1
sVpanic
p160
I3
sVweepi
p161
I5
sVbuoyanc
p162
I4
sVspot
p163
I4
sVblood
p164
I1
sVdemoralis
p165
I5
sVloyalti
p166
I4
sVfratern
p167
I4
sVshort
p168
I1
sVrepuls
p169
I2
sVrevolt
p170
I2
sVamic
p171
I4
sVoffens
p172
I2
sVhardheart
p173
I3
sVself-reproach
p174
I5
sVdread
p175
I3
sVoffend
p176
I1
sVcomfort
p177
I4
sVshudderi
p178
I3
sVhardhearted
p179
I3
sVsympathi
p180
I4
sVhorrifi
p181
I3
sVmove
p182
I4
sVapprov
p183
I4
sVtop
p184
I6
sVcovet
p185
I1
sVapprob
p186
I4
sVsuffer
p187
I5
sVworship
p188
I4
sVobscen
p189
I2
sVbrood
p190
I1
sVfit
p191
I1
sVglee
p192
I4
sVheartbreak
p193
I5
sVastonish
p194
I6
sVrancour
p195
I1
sVbereft
p196
I5
sVgood
p197
I4
sVgrievous
p198
I5
sVeuphori
p199
I4
sVsuperbl
p200
I6
sVbang
p201
I4
sVloneli
p202
I5
sVplaintiv
p203
I5
sVhigh-spirit
p204
I4
sVgrizzl
p205
I1
sVmalef
p206
I1
sVbedevil
p207
I1
sVgloom
p208
I5
sVthrill
p209
I4
sVmison
p210
I1
sVlow-spirited
p211
I5
sVnauseous
p212
I2
sVdysphoria
p213
I5
sVenrag
p214
I1
sVruefulli
p215
I5
sVpitiabl
p216
I5
sVtantal
p217
I1
sVheartsick
p218
I5
sVweight
p219
I5
sVsatiabl
p220
I4
sVexhilar
p221
I4
sVterrifi
p222
I3
sVexpect
p223
I4
sVenfuri
p224
I1
sVhysteria
p225
I3
sVdepress
p226
I5
sVdumfound
p227
I6
sVcontent
p228
I4
sVvenom
p229
I1
sVstupid
p230
I6
sVwondrous
p231
I6
sVrevuls
p232
I2
sVwick
p233
I2
sVstun
p234
I6
sVcheeri
p235
I4
sVred
p236
I1
sVjolli
p237
I4
sVmonster
p238
I1
sVlachrymos
p239
I5
sVcharit
p240
I4
sVcoldhearted
p241
I3
sVbulli
p242
I3
sVdire
p243
I3
sVromant
p244
I4
sVhapless
p245
I5
sVwarmhearted
p246
I4
sVbash
p247
I3
sVcare
p248
I4
sVpuzzl
p249
I6
sVgusto
p250
I4
sVturn
p251
I2
sVmisogyni
p252
I1
sVsoftheart
p253
I4
sVscare
p254
I3
sVmad
p255
I1
sVintimid
p256
I3
sVfeel
p257
I5
sVscene
p258
I1
sVsuspens
p259
I4
sVhorribl
p260
I3
sVfantast
p261
I6
sVfanci
p262
I4
sVgayli
p263
I4
sVcheerless
p264
I5
sVwrath
p265
I1
sVattach
p266
I4
sVbarrack
p267
I4
sVeuphoria
p268
I4
sVenthral
p269
I4
sVattack
p270
I3
sVdaunt
p271
I3
sVwoe
p272
I5
sVbitter
p273
I1
sVhilari
p274
I4
sVmerciless
p275
I3
sVmurder
p276
I1
sVconsol
p277
I4
sVbenef
p278
I4
sVrueful
p279
I5
sVwarmheart
p280
I4
sVworld-weari
p281
I5
sVself-piti
p282
I5
sVdrear
p283
I5
sVpresag
p284
I3
sVhappili
p285
I4
sVcrawl
p286
I3
sVdreari
p287
I5
sVjolliti
p288
I4
sVkind
p289
I4
sVbewitch
p290
I4
sVlament
p291
I5
sVheavyhearted
p292
I5
sVcower
p293
I3
sVbother
p294
I1
sVdolour
p295
I5
sVguilt
p296
I5
sVcruelli
p297
I3
sVmirth
p298
I4
sVrag
p299
I1
sVtrounc
p300
I6
sVterribl
p301
I3
sVgloomili
p302
I5
sVhuffish
p303
I1
sVoverjeal
p304
I1
sVsad
p305
I5
sVdash
p306
I3
sVtorment
p307
I1
sVgala
p308
I4
sVsulk
p309
I1
sVanger
p310
I1
sVshyli
p311
I3
sVchurn
p312
I2
sVdownheart
p313
I5
sVperplex
p314
I6
sVumbrag
p315
I1
sVafraid
p316
I3
sVrecreat
p317
I4
sVterrif
p318
I6
sVladen
p319
I5
sVoffer
p320
I4
sVyucki
p321
I2
sVirasc
p322
I1
sVwretch
p323
I5
sVtriumphal
p324
I4
sVnigh
p325
I4
sVcompat
p326
I4
sVuproari
p327
I4
sVunsur
p328
I3
sVdeplor
p329
I5
sVintimaci
p330
I4
sVfurious
p331
I1
sVcharm
p332
I4
sVcomplac
p333
I4
sVawe
p334
I6
sVclass
p335
I1
sVcharg
p336
I4
sVamaz
p337
I6
sVurg
p338
I4
sVgive
p339
I4
sVspleen
p340
I1
sValarm
p341
I3
sVproud
p342
I4
sVthirstili
p343
I4
sVmelanchol
p344
I5
sVdolor
p345
I5
sVgleefulli
p346
I4
sVnonplus
p347
I6
sVoppress
p348
I5
sVmarvel
p349
I6
sVfestal
p350
I4
sVmisanthrop
p351
I1
sVendear
p352
I4
sVelat
p353
I4
sVfond
p354
I4
sVpenanc
p355
I5
sVfavour
p356
I4
sVelan
p357
I4
sVfear
p358
I3
sVenthusiast
p359
I4
sVdespit
p360
I1
sVunkind
p361
I3
sVtire
p362
I2
sVdispleas
p363
I1
sVself-satisfact
p364
I4
sVbonheur
p365
I4
sVanticip
p366
I4
sVblue
p367
I5
sVhyster
p368
I3
sVenvi
p369
I1
sVdisgust
p370
I2
sVbegrudg
p371
I1
sVunhappi
p372
I5
sVdysphor
p373
I5
sVget
p374
I6
sVbeat
p375
I6
sVardor
p376
I4
sVpenitenti
p377
I5
sVresent
p378
I1
sVloath
p379
I2
sVapprobatori
p380
I4
sVsmug
p381
I4
sVsunni
p382
I4
sVrelish
p383
I4
sVavarici
p384
I1
sVdishearten
p385
I5
sVshamefac
p386
I5
sVhostil
p387
I1
sVbad
p388
I5
sVwroth
p389
I1
sVnettl
p390
I1
sVshi
p391
I3
sVpiss
p392
I1
sVenchant
p393
I4
sVhorrend
p394
I3
sVheartburn
p395
I1
sVconscienc
p396
I5
sVprehensil
p397
I1
sVsee
p398
I1
sVempathet
p399
I4
sVtriumphant
p400
I4
sVtender
p401
I4
sVclose
p402
I4
sVsofthearted
p403
I4
sVconcern
p404
I4
sVentranc
p405
I4
sVhorrif
p406
I3
sVhorrid
p407
I3
sVenamour
p408
I4
sVforlorn
p409
I5
sVaway
p410
I3
sVmonstrous
p411
I3
sVinfatu
p412
I4
sVfavor
p413
I4
sVscore
p414
I1
sVscorn
p415
I1
sVremors
p416
I5
sVire
p417
I1
sVpitiless
p418
I3
sVappreci
p419
I4
sVmerri
p420
I4
sVlikeabl
p421
I4
sVjoy
p422
I4
sVsorrow
p423
I5
sVweak
p424
I4
sVavid
p425
I4
sVgrasp
p426
I1
sVjovial
p427
I4
sVanimus
p428
I1
sVbeguil
p429
I4
sVintox
p430
I4
sVabomin
p431
I2
sVregret
p432
I5
sVtantrum
p433
I1
sVlightsom
p434
I4
sVcow
p435
I3
sVdisdain
p436
I1
sVgrief-stricken
p437
I5
sVill
p438
I1
sVgrudg
p439
I1
sVpiti
p440
I5
sVempathi
p441
I4
sVadmir
p442
I6
sVdowntrodden
p443
I5
sVbrotherlik
p444
I4
sVgaieti
p445
I4
sVdespond
p446
I5
sVdistress
p447
I5
sVpanick
p448
I3
sVinspir
p449
I4
sVwonder
p450
I6
sVwalk
p451
I4
sVcommend
p452
I4
sVveng
p453
I1
sVhuffili
p454
I1
sVsulki
p455
I1
sVlaudabl
p456
I4
sVrespect
p457
I4
sVlow-spirit
p458
I5
sVscari
p459
I3
sVgodforsaken
p460
I5
sVidentif
p461
I4
sVdevil
p462
I5
sVdun
p463
I1
sVexalt
p464
I4
sVshame
p465
I5
sVlong-fac
p466
I5
sVuncheer
p467
I5
sVcliff-hang
p468
I4
sVinterest
p469
I4
sVwarmth
p470
I4
sVhesit
p471
I3
sVdistast
p472
I2
sVgay
p473
I4
sVprotect
p474
I4
sVlift
p475
I4
sVtogeth
p476
I4
sVimpress
p477
I4
sVador
p478
I4
sVantagon
p479
I1
sVcruelti
p480
I3
sVchill
p481
I3
sVugli
p482
I3
sVident
p483
I4
sVflummox
p484
I6
sVlook
p485
I4
sVcarefre
p486
I4
sVflabbergast
p487
I6
sVmiseri
p488
I5
sVcontemn
p489
I1
sVwill
p490
I4
sVcast
p491
I5
sVqueasi
p492
I2
sVscarili
p493
I3
sVastound
p494
I6
sVworri
p495
I4
sVmisanthropi
p496
I1
sVdemor
p497
I5
sVgall
p498
I1
sVhearten
p499
I4
sVawestricken
p500
I6
sVroil
p501
I1
sVsatisfactori
p502
I4
sVcaptiv
p503
I4
sVoutrag
p504
I3
sVuplift
p505
I4
sVabhorr
p506
I2
sVriotous
p507
I4
sVapprehens
p508
I3
sVcholer
p509
I1
sVmisfortun
p510
I5
sVpester
p511
I1
sVinsouci
p512
I4
sVruth
p513
I5
sVjoyless
p514
I5
sVjocund
p515
I4
sVbalk
p516
I1
sVgoodwil
p517
I4
sVexpans
p518
I4
sVuneasili
p519
I3
sVpick
p520
I4
sVevil
p521
I1
sValert
p522
I3
sVdelight
p523
I4
sVamuck
p524
I1
sVardour
p525
I4
sVjealous
p526
I1
sVweep
p527
I5
sVtimid
p528
I3
sVkid
p529
I4
sVodium
p530
I1
sVoff
p531
I3
sVdiscourag
p532
I5
sVenamored
p533
I4
sVpride
p534
I4
sVcheer
p535
I4
sVthe
p536
I1
sVtast
p537
I4
sVchaff
p538
I4
sVhowl
p539
I6
sVeuphor
p540
I4
sVvexat
p541
I1
sVidentifi
p542
I4
sVindign
p543
I1
sVplaguey
p544
I1
sVenjoy
p545
I4
sVaffright
p546
I3
sVpredilect
p547
I4
sVglum
p548
I5
sVdiffid
p549
I3
sVexacerb
p550
I1
sVpenchant
p551
I4
sVstimul
p552
I4
sVnettlesom
p553
I1
sVeager
p554
I4
sVenamor
p555
I4
sVkick
p556
I4
sVdingi
p557
I5
sVrejoic
p558
I4
sVexult
p559
I4
sVebulli
p560
I4
sVstung
p561
I1
sVlivid
p562
I1
sVdark
p563
I5
sVshadow
p564
I3
sVgrim
p565
I5
sVbenefic
p566
I4
sVamok
p567
I1
sVlike
p568
I4
sVzeal
p569
I4
sVstagger
p570
I6
sVexasper
p571
I1
sVamor
p572
I4
sVpestifer
p573
I1
sVprovok
p574
I1
sVfulfil
p575
I4
sVmalevol
p576
I1
sVincens
p577
I1
sVcaptur
p578
I4
sVdole
p579
I5
sVhackl
p580
I1
sVrevel
p581
I4
sVrile
p582
I1
sVpall
p583
I3
sVfearsom
p584
I3
sVscarey
p585
I3
sVbore
p586
I5
sVsurpris
p587
I6
sVcreep
p588
I3
sVfriend
p589
I4
sVfor
p590
I5
sVgreen-ey
p591
I1
sVzealous
p592
I4
sVgladden
p593
I4
sVthunderstruck
p594
I6
sS'be'
p595
I4
sVcrucifi
p596
I1
sVzest
p597
I4
sVsadden
p598
I5
sVjubil
p599
I4
sVrue
p600
I5
sVreveng
p601
I1
sVstew
p602
I1
sVpeev
p603
I1
sVpanic-struck
p604
I3
sVstage
p605
I3
sVchafe
p606
I1
sS'on'
p607
I4
sVloathsom
p608
I2
sVamat
p609
I4
sVpremonit
p610
I3
sS'of'
p611
I6
sVenviabl
p612
I1
sVattrit
p613
I5
sVpreen
p614
I4
sVcring
p615
I3
sVfestiv
p616
I4
sVdespair
p617
I5
sVexecr
p618
I5
sVinfuri
p619
I1
sVheartrend
p620
I5
sVastoni
p621
I6
sVmisogyn
p622
I1
sVirrit
p623
I1
sVdrab
p624
I5
sVlikabl
p625
I4
sVcontrit
p626
I5
sVnoisom
p627
I2
sVdown
p628
I5
sVfuri
p629
I1
sVpiteous
p630
I5
sVesteem
p631
I4
sVatroci
p632
I3
sVanimos
p633
I1
sVunassert
p634
I3
sVoccupi
p635
I4
sVdesol
p636
I5
sVfrustrat
p637
I1
sVmadden
p638
I1
sVhappi
p639
I4
sVhangdog
p640
I5
sVfascin
p641
I4
sVlow
p642
I5
sVjealousi
p643
I1
sVheavyheart
p644
I5
sVhilar
p645
I4
sVsatisfactorili
p646
I4
sVsolac
p647
I4
sVplaguy
p648
I1
sVgreat
p649
I4
sVregard
p650
I4
sVheartach
p651
I5
sVpenit
p652
I5
sVshyness
p653
I3
sVstrike
p654
I4
sVbaffl
p655
I6
sVpathet
p656
I5
sVbrokenhearted
p657
I5
sVwith
p658
I4
sVpraiseworthili
p659
I4
sVcongratul
p660
I4
sVbanter
p661
I4
sVrush
p662
I4
sVgratifi
p663
I4
sVrage
p664
I1
sVembolden
p665
I4
sS'up'
p666
I4
sVpanicki
p667
I3
sVmystifi
p668
I6
sVbrowbeaten
p669
I3
sVcruel
p670
I3
sVhorror-struck
p671
I3
sVtrepid
p672
I3
sVloving
p673
I4
sVdander
p674
I1
sVtemper
p675
I1
sVaffection
p676
I4
sVmalic
p677
I1
sVawestruck
p678
I6
sVfright
p679
I3
sVfrighten
p680
I3
sVflush
p681
I4
sVfellow
p682
I4
sS'at'
p683
I1
sVaw
p684
I6
sVaggrav
p685
I1
sVempath
p686
I4
sVspite
p687
I1
sVtrip
p688
I5
sVgrabbi
p689
I1
sVpuppi
p690
I4
sVrepent
p691
I5
sVbesot
p692
I6
sVsick
p693
I2
sVwoeful
p694
I5
sVself-doubt
p695
I3
sVpoor
p696
I5
sVself-satisfi
p697
I4
sVbenefici
p698
I4
sVdevot
p699
I4
sVchirk
p700
I4
sVscream
p701
I4
sVmisolog
p702
I1
sVwallow
p703
I4
sVsoft-boil
p704
I4
sVbrotherhood
p705
I4
sVschadenfreud
p706
I4
sVdownhearted
p707
I5
sVunworri
p708
I4
sVdowncast
p709
I5
sVbelliger
p710
I1
sVvexati
p711
I1
sVbothersom
p712
I1
sVbecharm
p713
I4
sVabhor
p714
I1
s.